; Function Attrs: mustprogress uwtable
define hidden noundef nonnull align 8 dereferenceable(8) ptr @_ZNK3sat7cut_set7displayERSo(ptr noundef nonnull readonly align 8 captures(none) dereferenceable(32) %0, ptr noundef nonnull returned align 8 dereferenceable(8) %1) local_unnamed_addr #3 align 2 {
  %3 = getelementptr inbounds nuw i8, ptr %0, i64 24
  %4 = load ptr, ptr %3, align 8, !tbaa !11
  %5 = getelementptr inbounds nuw i8, ptr %0, i64 16
  %6 = load i32, ptr %5, align 8, !tbaa !3
  %7 = zext i32 %6 to i64
  %8 = getelementptr inbounds nuw %"class.sat::cut", ptr %4, i64 %7
  %.not10 = icmp eq i32 %6, 0
  br i1 %.not10, label %._crit_edge, label %.lr.ph

._crit_edge:                                      ; preds = %.lr.ph, %2
  ret ptr %1

.lr.ph:                                           ; preds = %2, %.lr.ph
  %.011 = phi ptr [ %11, %.lr.ph ], [ %4, %2 ]
  %9 = tail call noundef nonnull align 8 dereferenceable(8) ptr @_ZNK3sat3cut7displayERSo(ptr noundef nonnull align 8 dereferenceable(48) %.011, ptr noundef nonnull align 8 dereferenceable(8) %1)
  %10 = tail call noundef nonnull align 8 dereferenceable(8) ptr @_ZSt16__ostream_insertIcSt11char_traitsIcEERSt13basic_ostreamIT_T0_ES6_PKS3_l(ptr noundef nonnull align 8 dereferenceable(8) %1, ptr noundef nonnull @.str.2, i64 noundef 1)
  %11 = getelementptr inbounds nuw i8, ptr %.011, i64 48
  %.not = icmp eq ptr %11, %8
  br i1 %.not, label %._crit_edge, label %.lr.ph
}